target datalayout = "e-m:e-p270:32:32-p271:32:32-p272:64:64-i64:64-i128:128-f80:128-n8:16:32:64-S128"
target triple = "x86_64-pc-linux-gnu"

%class.ConstraintCastNode = type { %class.TypeNode, i32, ptr }
%class.TypeNode = type { %class.Node.base, ptr }
%class.Node.base = type <{ ptr, ptr, ptr, i32, i32, i32, i32, i32, i32, i32 }>

; Function Attrs: mustprogress nounwind uwtable
define hidden noundef zeroext i1 @_ZNK18ConstraintCastNode3cmpERK4Node(ptr noundef nonnull align 8 dereferenceable(80) %0, ptr noundef nonnull align 8 dereferenceable(52) %1) unnamed_addr #1 align 2 {
  %3 = alloca i1, align 1
  %4 = alloca ptr, align 8
  %5 = alloca ptr, align 8
  %6 = alloca ptr, align 8
  store ptr %0, ptr %4, align 8
  store ptr %1, ptr %5, align 8
  %7 = load ptr, ptr %4, align 8
  %8 = load ptr, ptr %5, align 8
  %9 = call noundef zeroext i1 @_ZNK8TypeNode3cmpERK4Node(ptr noundef nonnull align 8 dereferenceable(64) %7, ptr noundef nonnull align 8 dereferenceable(52) %8)
  br i1 %9, label %11, label %10

10:                                               ; preds = %2
  store i1 false, ptr %3, align 1
  br label %46

11:                                               ; preds = %2
  %12 = load ptr, ptr %5, align 8
  store ptr %12, ptr %6, align 8
  %13 = load ptr, ptr %6, align 8
  %14 = getelementptr inbounds %class.ConstraintCastNode, ptr %13, i32 0, i32 1
  %15 = load i32, ptr %14, align 8
  %16 = getelementptr inbounds %class.ConstraintCastNode, ptr %7, i32 0, i32 1
  %17 = load i32, ptr %16, align 8
  %18 = icmp ne i32 %15, %17
  br i1 %18, label %19, label %20

19:                                               ; preds = %11
  store i1 false, ptr %3, align 1
  br label %46

20:                                               ; preds = %11
  %21 = getelementptr inbounds %class.ConstraintCastNode, ptr %7, i32 0, i32 2
  %22 = load ptr, ptr %21, align 8
  %23 = icmp eq ptr %22, null
  br i1 %23, label %29, label %24

24:                                               ; preds = %20
  %25 = load ptr, ptr %6, align 8
  %26 = getelementptr inbounds %class.ConstraintCastNode, ptr %25, i32 0, i32 2
  %27 = load ptr, ptr %26, align 8
  %28 = icmp eq ptr %27, null
  br i1 %28, label %29, label %36

29:                                               ; preds = %24, %20
  %30 = getelementptr inbounds %class.ConstraintCastNode, ptr %7, i32 0, i32 2
  %31 = load ptr, ptr %30, align 8
  %32 = load ptr, ptr %6, align 8
  %33 = getelementptr inbounds %class.ConstraintCastNode, ptr %32, i32 0, i32 2
  %34 = load ptr, ptr %33, align 8
  %35 = icmp eq ptr %31, %34
  store i1 %35, ptr %3, align 1
  br label %46

36:                                               ; preds = %24
  %37 = getelementptr inbounds %class.ConstraintCastNode, ptr %7, i32 0, i32 2
  %38 = load ptr, ptr %37, align 8
  %39 = load ptr, ptr %6, align 8
  %40 = getelementptr inbounds %class.ConstraintCastNode, ptr %39, i32 0, i32 2
  %41 = load ptr, ptr %40, align 8
  %42 = load ptr, ptr %38, align 8
  %43 = getelementptr inbounds ptr, ptr %42, i64 0
  %44 = load ptr, ptr %43, align 8
  %45 = call noundef zeroext i1 %44(ptr noundef nonnull align 8 dereferenceable(32) %38, ptr noundef %41)
  store i1 %45, ptr %3, align 1
  br label %46

46:                                               ; preds = %36, %29, %19, %10
  %47 = load i1, ptr %3, align 1
  ret i1 %47
}