; Function Attrs: mustprogress nounwind uwtable
define hidden noundef zeroext i1 @_ZNK18ConstraintCastNode3cmpERK4Node(ptr noundef nonnull align 8 dereferenceable(80) %0, ptr noundef nonnull align 8 dereferenceable(52) %1) unnamed_addr #0 align 2 {
  %3 = tail call noundef zeroext i1 @_ZNK8TypeNode3cmpERK4Node(ptr noundef nonnull align 8 dereferenceable(64) %0, ptr noundef nonnull align 8 dereferenceable(52) %1) #6
  br i1 %3, label %4, label %21

4:                                                ; preds = %2
  %5 = getelementptr inbounds i8, ptr %1, i64 64
  %6 = load i32, ptr %5, align 8
  %7 = getelementptr inbounds i8, ptr %0, i64 64
  %8 = load i32, ptr %7, align 8
  %.not = icmp eq i32 %6, %8
  br i1 %.not, label %9, label %21

9:                                                ; preds = %4
  %10 = getelementptr inbounds i8, ptr %0, i64 72
  %11 = load ptr, ptr %10, align 8
  %12 = icmp eq ptr %11, null
  %.phi.trans.insert = getelementptr inbounds i8, ptr %1, i64 72
  %.pre = load ptr, ptr %.phi.trans.insert, align 8
  br i1 %12, label %._crit_edge, label %13

13:                                               ; preds = %9
  %14 = icmp eq ptr %.pre, null
  br i1 %14, label %._crit_edge, label %17

._crit_edge:                                      ; preds = %9, %13
  %15 = phi ptr [ null, %13 ], [ %.pre, %9 ]
  %16 = icmp eq ptr %11, %15
  br label %21

17:                                               ; preds = %13
  %18 = load ptr, ptr %11, align 8
  %19 = load ptr, ptr %18, align 8
  %20 = tail call noundef zeroext i1 %19(ptr noundef nonnull align 8 dereferenceable(32) %11, ptr noundef nonnull %.pre) #6
  br label %21

21:                                               ; preds = %4, %2, %17, %._crit_edge
  %.0 = phi i1 [ %16, %._crit_edge ], [ %20, %17 ], [ false, %2 ], [ false, %4 ]
  ret i1 %.0
}